target datalayout = "e-m:e-p270:32:32-p271:32:32-p272:64:64-i64:64-i128:128-f80:128-n8:16:32:64-S128"
target triple = "x86_64-pc-linux-gnu"

; Function Attrs: inlinehint nounwind uwtable
define internal i32 @constant_time_msb(i32 noundef %0) #2 {
  %2 = alloca i32, align 4
  store i32 %0, ptr %2, align 4, !tbaa !8
  %3 = load i32, ptr %2, align 4, !tbaa !8
  %4 = lshr i32 %3, 31
  %5 = sub i32 0, %4
  ret i32 %5
}

; Function Attrs: inlinehint nounwind uwtable
define internal i32 @constant_time_is_zero(i32 noundef %0) #2 {
  %2 = alloca i32, align 4
  store i32 %0, ptr %2, align 4, !tbaa !8
  %3 = load i32, ptr %2, align 4, !tbaa !8
  %4 = xor i32 %3, -1
  %5 = load i32, ptr %2, align 4, !tbaa !8
  %6 = sub i32 %5, 1
  %7 = and i32 %4, %6
  %8 = call i32 @constant_time_msb(i32 noundef %7)
  ret i32 %8
}

; Function Attrs: nounwind uwtable
define i32 @DES_is_weak_key(ptr noundef %0) #0 {
  %2 = alloca ptr, align 8
  %3 = alloca i32, align 4
  %4 = alloca i32, align 4
  %5 = alloca i32, align 4
  store ptr %0, ptr %2, align 8, !tbaa !3
  call void @llvm.lifetime.start.p0(i64 4, ptr %3) #4
  call void @llvm.lifetime.start.p0(i64 4, ptr %4) #4
  store i32 0, ptr %4, align 4, !tbaa !8
  call void @llvm.lifetime.start.p0(i64 4, ptr %5) #4
  store i32 0, ptr %3, align 4, !tbaa !8
  br label %6

6:                                                ; preds = %21, %1
  %7 = load i32, ptr %3, align 4, !tbaa !8
  %8 = zext i32 %7 to i64
  %9 = icmp ult i64 %8, 16
  br i1 %9, label %10, label %24

10:                                               ; preds = %6
  %11 = load i32, ptr %3, align 4, !tbaa !8
  %12 = zext i32 %11 to i64
  %13 = getelementptr inbounds nuw [16 x [8 x i8]], ptr @weak_keys, i64 0, i64 %12
  %14 = getelementptr inbounds [8 x i8], ptr %13, i64 0, i64 0
  %15 = load ptr, ptr %2, align 8, !tbaa !3
  %16 = call i32 @CRYPTO_memcmp(ptr noundef %14, ptr noundef %15, i64 noundef 8)
  store i32 %16, ptr %5, align 4, !tbaa !8
  %17 = load i32, ptr %5, align 4, !tbaa !8
  %18 = call i32 @constant_time_is_zero(i32 noundef %17)
  %19 = load i32, ptr %4, align 4, !tbaa !8
  %20 = or i32 %19, %18
  store i32 %20, ptr %4, align 4, !tbaa !8
  br label %21

21:                                               ; preds = %10
  %22 = load i32, ptr %3, align 4, !tbaa !8
  %23 = add i32 %22, 1
  store i32 %23, ptr %3, align 4, !tbaa !8
  br label %6, !llvm.loop !14

24:                                               ; preds = %6
  %25 = load i32, ptr %4, align 4, !tbaa !8
  %26 = and i32 %25, 1
  call void @llvm.lifetime.end.p0(i64 4, ptr %5) #4
  call void @llvm.lifetime.end.p0(i64 4, ptr %4) #4
  call void @llvm.lifetime.end.p0(i64 4, ptr %3) #4
  ret i32 %26
}