; Function Attrs: nounwind uwtable
define range(i32 0, 2) i32 @DES_is_weak_key(ptr noundef %0) local_unnamed_addr #2 {
  br label %2

2:                                                ; preds = %1, %2
  %indvars.iv = phi i64 [ 0, %1 ], [ %indvars.iv.next, %2 ]
  %.068 = phi i32 [ 0, %1 ], [ %6, %2 ]
  %3 = getelementptr inbounds nuw [16 x [8 x i8]], ptr @weak_keys, i64 0, i64 %indvars.iv
  %4 = tail call i32 @CRYPTO_memcmp(ptr noundef nonnull %3, ptr noundef %0, i64 noundef 8) #5
  %5 = icmp eq i32 %4, 0
  %6 = select i1 %5, i32 -1, i32 %.068
  %indvars.iv.next = add nuw nsw i64 %indvars.iv, 1
  %exitcond.not = icmp eq i64 %indvars.iv.next, 16
  br i1 %exitcond.not, label %7, label %2, !llvm.loop !9

7:                                                ; preds = %2
  %8 = and i32 %6, 1
  ret i32 %8
}